; Function Attrs: mustprogress nofree norecurse nosync nounwind willreturn memory(argmem: readwrite) uwtable
define void @_ZN32pxrInternal_v0_24__pxrReserved__10GfMatrix4dC2ERKNS_10GfMatrix3dERKNS_7GfVec3dE(ptr nocapture noundef nonnull writeonly align 8 dereferenceable(128) %0, ptr nocapture noundef nonnull readonly align 8 dereferenceable(72) %1, ptr nocapture noundef nonnull readonly align 8 dereferenceable(24) %2) unnamed_addr #2 align 2 {
  %4 = load double, ptr %1, align 8
  store double %4, ptr %0, align 8
  %5 = getelementptr inbounds i8, ptr %1, i64 8
  %6 = load double, ptr %5, align 8
  %7 = getelementptr inbounds i8, ptr %0, i64 8
  store double %6, ptr %7, align 8
  %8 = getelementptr inbounds i8, ptr %1, i64 16
  %9 = load double, ptr %8, align 8
  %10 = getelementptr inbounds i8, ptr %0, i64 16
  store double %9, ptr %10, align 8
  %11 = getelementptr inbounds i8, ptr %0, i64 24
  store double 0.000000e+00, ptr %11, align 8
  %12 = getelementptr inbounds i8, ptr %1, i64 24
  %13 = load double, ptr %12, align 8
  %14 = getelementptr inbounds i8, ptr %0, i64 32
  store double %13, ptr %14, align 8
  %15 = getelementptr inbounds i8, ptr %1, i64 32
  %16 = load double, ptr %15, align 8
  %17 = getelementptr inbounds i8, ptr %0, i64 40
  store double %16, ptr %17, align 8
  %18 = getelementptr inbounds i8, ptr %1, i64 40
  %19 = load double, ptr %18, align 8
  %20 = getelementptr inbounds i8, ptr %0, i64 48
  store double %19, ptr %20, align 8
  %21 = getelementptr inbounds i8, ptr %0, i64 56
  store double 0.000000e+00, ptr %21, align 8
  %22 = getelementptr inbounds i8, ptr %1, i64 48
  %23 = load double, ptr %22, align 8
  %24 = getelementptr inbounds i8, ptr %0, i64 64
  store double %23, ptr %24, align 8
  %25 = getelementptr inbounds i8, ptr %1, i64 56
  %26 = load double, ptr %25, align 8
  %27 = getelementptr inbounds i8, ptr %0, i64 72
  store double %26, ptr %27, align 8
  %28 = getelementptr inbounds i8, ptr %1, i64 64
  %29 = load double, ptr %28, align 8
  %30 = getelementptr inbounds i8, ptr %0, i64 80
  store double %29, ptr %30, align 8
  %31 = getelementptr inbounds i8, ptr %0, i64 88
  %32 = getelementptr inbounds i8, ptr %0, i64 120
  tail call void @llvm.memset.p0.i64(ptr noundef nonnull align 8 dereferenceable(32) %31, i8 0, i64 32, i1 false)
  store double 1.000000e+00, ptr %32, align 8
  %33 = load double, ptr %2, align 8
  %34 = getelementptr inbounds i8, ptr %0, i64 96
  store double %33, ptr %34, align 8
  %35 = getelementptr inbounds i8, ptr %2, i64 8
  %36 = load double, ptr %35, align 8
  %37 = getelementptr inbounds i8, ptr %0, i64 104
  store double %36, ptr %37, align 8
  %38 = getelementptr inbounds i8, ptr %2, i64 16
  %39 = load double, ptr %38, align 8
  %40 = getelementptr inbounds i8, ptr %0, i64 112
  store double %39, ptr %40, align 8
  store double 1.000000e+00, ptr %32, align 8
  ret void
}